target datalayout = "e-m:e-p270:32:32-p271:32:32-p272:64:64-i64:64-i128:128-f80:128-n8:16:32:64-S128"
target triple = "x86_64-pc-linux-gnu"

%struct.Mio_Cell2_t_ = type { ptr, ptr, i32, float, i64, i64, i32, [6 x i32], ptr }

@s_Truths6 = internal global [6 x i64] [i64 -6148914691236517206, i64 -3689348814741910324, i64 -1085102592571150096, i64 -71777214294589696, i64 -281470681808896, i64 -4294967296], align 16

; Function Attrs: inlinehint nounwind uwtable
define internal i64 @Abc_Tt6SwapAdjacent(i64 noundef %0, i32 noundef %1) #2 {
  %3 = alloca i64, align 8
  %4 = alloca i32, align 4
  store i64 %0, ptr %3, align 8, !tbaa !25
  store i32 %1, ptr %4, align 4, !tbaa !17
  %5 = load i64, ptr %3, align 8, !tbaa !25
  %6 = load i32, ptr %4, align 4, !tbaa !17
  %7 = sext i32 %6 to i64
  %8 = getelementptr inbounds [5 x [3 x i64]], ptr @s_PMasks, i64 0, i64 %7
  %9 = getelementptr inbounds [3 x i64], ptr %8, i64 0, i64 0
  %10 = load i64, ptr %9, align 8, !tbaa !25
  %11 = and i64 %5, %10
  %12 = load i64, ptr %3, align 8, !tbaa !25
  %13 = load i32, ptr %4, align 4, !tbaa !17
  %14 = sext i32 %13 to i64
  %15 = getelementptr inbounds [5 x [3 x i64]], ptr @s_PMasks, i64 0, i64 %14
  %16 = getelementptr inbounds [3 x i64], ptr %15, i64 0, i64 1
  %17 = load i64, ptr %16, align 8, !tbaa !25
  %18 = and i64 %12, %17
  %19 = load i32, ptr %4, align 4, !tbaa !17
  %20 = shl i32 1, %19
  %21 = zext i32 %20 to i64
  %22 = shl i64 %18, %21
  %23 = or i64 %11, %22
  %24 = load i64, ptr %3, align 8, !tbaa !25
  %25 = load i32, ptr %4, align 4, !tbaa !17
  %26 = sext i32 %25 to i64
  %27 = getelementptr inbounds [5 x [3 x i64]], ptr @s_PMasks, i64 0, i64 %26
  %28 = getelementptr inbounds [3 x i64], ptr %27, i64 0, i64 2
  %29 = load i64, ptr %28, align 8, !tbaa !25
  %30 = and i64 %24, %29
  %31 = load i32, ptr %4, align 4, !tbaa !17
  %32 = shl i32 1, %31
  %33 = zext i32 %32 to i64
  %34 = lshr i64 %30, %33
  %35 = or i64 %23, %34
  ret i64 %35
}

; Function Attrs: inlinehint nounwind uwtable
define internal i32 @Abc_LitNot(i32 noundef %0) #2 {
  %2 = alloca i32, align 4
  store i32 %0, ptr %2, align 4, !tbaa !17
  %3 = load i32, ptr %2, align 4, !tbaa !17
  %4 = xor i32 %3, 1
  ret i32 %4
}

; Function Attrs: inlinehint nounwind uwtable
define internal i64 @Abc_Tt6Flip(i64 noundef %0, i32 noundef %1) #2 {
  %3 = alloca i64, align 8
  %4 = alloca i32, align 4
  store i64 %0, ptr %3, align 8, !tbaa !25
  store i32 %1, ptr %4, align 4, !tbaa !17
  %5 = load i64, ptr %3, align 8, !tbaa !25
  %6 = load i32, ptr %4, align 4, !tbaa !17
  %7 = shl i32 1, %6
  %8 = zext i32 %7 to i64
  %9 = shl i64 %5, %8
  %10 = load i32, ptr %4, align 4, !tbaa !17
  %11 = sext i32 %10 to i64
  %12 = getelementptr inbounds [6 x i64], ptr @s_Truths6, i64 0, i64 %11
  %13 = load i64, ptr %12, align 8, !tbaa !25
  %14 = and i64 %9, %13
  %15 = load i64, ptr %3, align 8, !tbaa !25
  %16 = load i32, ptr %4, align 4, !tbaa !17
  %17 = sext i32 %16 to i64
  %18 = getelementptr inbounds [6 x i64], ptr @s_Truths6, i64 0, i64 %17
  %19 = load i64, ptr %18, align 8, !tbaa !25
  %20 = and i64 %15, %19
  %21 = load i32, ptr %4, align 4, !tbaa !17
  %22 = shl i32 1, %21
  %23 = zext i32 %22 to i64
  %24 = lshr i64 %20, %23
  %25 = or i64 %14, %24
  store i64 %25, ptr %3, align 8, !tbaa !25
  ret i64 %25
}

; Function Attrs: inlinehint nounwind uwtable
define internal i32 @Abc_Var2Lit(i32 noundef %0, i32 noundef %1) #2 {
  %3 = alloca i32, align 4
  %4 = alloca i32, align 4
  store i32 %0, ptr %3, align 4, !tbaa !17
  store i32 %1, ptr %4, align 4, !tbaa !17
  %5 = load i32, ptr %3, align 4, !tbaa !17
  %6 = load i32, ptr %3, align 4, !tbaa !17
  %7 = add nsw i32 %5, %6
  %8 = load i32, ptr %4, align 4, !tbaa !17
  %9 = add nsw i32 %7, %8
  ret i32 %9
}

; Function Attrs: nounwind uwtable
define void @Nf_StoCreateGateMaches(ptr noundef %0, ptr noundef %1, ptr noundef %2, ptr noundef %3, ptr noundef %4, ptr noundef %5, ptr noundef %6, ptr noundef %7, i32 noundef %8, i32 noundef %9, i32 noundef %10) #0 {
  %12 = alloca ptr, align 8
  %13 = alloca ptr, align 8
  %14 = alloca ptr, align 8
  %15 = alloca ptr, align 8
  %16 = alloca ptr, align 8
  %17 = alloca ptr, align 8
  %18 = alloca ptr, align 8
  %19 = alloca ptr, align 8
  %20 = alloca i32, align 4
  %21 = alloca i32, align 4
  %22 = alloca i32, align 4
  %23 = alloca [6 x i32], align 16
  %24 = alloca ptr, align 8
  %25 = alloca ptr, align 8
  %26 = alloca i32, align 4
  %27 = alloca i32, align 4
  %28 = alloca i64, align 8
  %29 = alloca i64, align 8
  %30 = alloca i64, align 8
  %31 = alloca i32, align 4
  %32 = alloca i32, align 4
  %33 = alloca i32, align 4
  %34 = alloca i32, align 4
  store ptr %0, ptr %12, align 8, !tbaa !21
  store ptr %1, ptr %13, align 8, !tbaa !23
  store ptr %2, ptr %14, align 8, !tbaa !3
  store ptr %3, ptr %15, align 8, !tbaa !49
  store ptr %4, ptr %16, align 8, !tbaa !49
  store ptr %5, ptr %17, align 8, !tbaa !8
  store ptr %6, ptr %18, align 8, !tbaa !23
  store ptr %7, ptr %19, align 8, !tbaa !26
  store i32 %8, ptr %20, align 4, !tbaa !17
  store i32 %9, ptr %21, align 4, !tbaa !17
  store i32 %10, ptr %22, align 4, !tbaa !17
  call void @llvm.lifetime.start.p0(i64 24, ptr %23) #13
  call void @llvm.lifetime.start.p0(i64 8, ptr %24) #13
  call void @llvm.lifetime.start.p0(i64 8, ptr %25) #13
  call void @llvm.lifetime.start.p0(i64 4, ptr %26) #13
  %35 = load ptr, ptr %17, align 8, !tbaa !8
  %36 = load ptr, ptr %14, align 8, !tbaa !3
  %37 = getelementptr inbounds nuw %struct.Mio_Cell2_t_, ptr %36, i32 0, i32 2
  %38 = load i32, ptr %37, align 8
  %39 = lshr i32 %38, 28
  %40 = zext i32 %39 to i64
  %41 = getelementptr inbounds nuw i32, ptr %35, i64 %40
  %42 = load i32, ptr %41, align 4, !tbaa !17
  store i32 %42, ptr %26, align 4, !tbaa !17
  call void @llvm.lifetime.start.p0(i64 4, ptr %27) #13
  %43 = load ptr, ptr %14, align 8, !tbaa !3
  %44 = getelementptr inbounds nuw %struct.Mio_Cell2_t_, ptr %43, i32 0, i32 2
  %45 = load i32, ptr %44, align 8
  %46 = lshr i32 %45, 28
  %47 = shl i32 1, %46
  store i32 %47, ptr %27, align 4, !tbaa !17
  call void @llvm.lifetime.start.p0(i64 8, ptr %28) #13
  call void @llvm.lifetime.start.p0(i64 8, ptr %29) #13
  call void @llvm.lifetime.start.p0(i64 8, ptr %30) #13
  call void @llvm.lifetime.start.p0(i64 4, ptr %31) #13
  call void @llvm.lifetime.start.p0(i64 4, ptr %32) #13
  call void @llvm.lifetime.start.p0(i64 4, ptr %33) #13
  store i32 0, ptr %31, align 4, !tbaa !17
  br label %48

48:                                               ; preds = %61, %11
  %49 = load i32, ptr %31, align 4, !tbaa !17
  %50 = load ptr, ptr %14, align 8, !tbaa !3
  %51 = getelementptr inbounds nuw %struct.Mio_Cell2_t_, ptr %50, i32 0, i32 2
  %52 = load i32, ptr %51, align 8
  %53 = lshr i32 %52, 28
  %54 = icmp slt i32 %49, %53
  br i1 %54, label %55, label %64

55:                                               ; preds = %48
  %56 = load i32, ptr %31, align 4, !tbaa !17
  %57 = call i32 @Abc_Var2Lit(i32 noundef %56, i32 noundef 0)
  %58 = load i32, ptr %31, align 4, !tbaa !17
  %59 = sext i32 %58 to i64
  %60 = getelementptr inbounds [6 x i32], ptr %23, i64 0, i64 %59
  store i32 %57, ptr %60, align 4, !tbaa !17
  br label %61

61:                                               ; preds = %55
  %62 = load i32, ptr %31, align 4, !tbaa !17
  %63 = add nsw i32 %62, 1
  store i32 %63, ptr %31, align 4, !tbaa !17
  br label %48, !llvm.loop !51

64:                                               ; preds = %48
  %65 = load ptr, ptr %14, align 8, !tbaa !3
  %66 = getelementptr inbounds nuw %struct.Mio_Cell2_t_, ptr %65, i32 0, i32 5
  %67 = load i64, ptr %66, align 8, !tbaa !52
  store i64 %67, ptr %29, align 8, !tbaa !25
  store i64 %67, ptr %28, align 8, !tbaa !25
  store i32 0, ptr %32, align 4, !tbaa !17
  br label %68

68:                                               ; preds = %172, %64
  %69 = load i32, ptr %32, align 4, !tbaa !17
  %70 = load i32, ptr %26, align 4, !tbaa !17
  %71 = icmp slt i32 %69, %70
  br i1 %71, label %72, label %175

72:                                               ; preds = %68
  %73 = load i64, ptr %28, align 8, !tbaa !25
  store i64 %73, ptr %30, align 8, !tbaa !25
  store i32 0, ptr %33, align 4, !tbaa !17
  br label %74

74:                                               ; preds = %126, %72
  %75 = load i32, ptr %33, align 4, !tbaa !17
  %76 = load i32, ptr %27, align 4, !tbaa !17
  %77 = icmp slt i32 %75, %76
  br i1 %77, label %78, label %129

78:                                               ; preds = %74
  %79 = load ptr, ptr %12, align 8, !tbaa !21
  %80 = load ptr, ptr %13, align 8, !tbaa !23
  %81 = load ptr, ptr %14, align 8, !tbaa !3
  %82 = load i64, ptr %28, align 8, !tbaa !25
  %83 = getelementptr inbounds [6 x i32], ptr %23, i64 0, i64 0
  %84 = load ptr, ptr %14, align 8, !tbaa !3
  %85 = getelementptr inbounds nuw %struct.Mio_Cell2_t_, ptr %84, i32 0, i32 2
  %86 = load i32, ptr %85, align 8
  %87 = lshr i32 %86, 28
  %88 = load ptr, ptr %18, align 8, !tbaa !23
  %89 = load ptr, ptr %19, align 8, !tbaa !26
  %90 = load i32, ptr %20, align 4, !tbaa !17
  %91 = load i32, ptr %21, align 4, !tbaa !17
  %92 = load i32, ptr %22, align 4, !tbaa !17
  call void @Nf_StoCreateGateAdd(ptr noundef %79, ptr noundef %80, ptr noundef %81, i64 noundef %82, ptr noundef %83, i32 noundef %87, ptr noundef %88, ptr noundef %89, i32 noundef %90, i32 noundef %91, i32 noundef %92)
  %93 = load i64, ptr %28, align 8, !tbaa !25
  %94 = load ptr, ptr %15, align 8, !tbaa !49
  %95 = load ptr, ptr %14, align 8, !tbaa !3
  %96 = getelementptr inbounds nuw %struct.Mio_Cell2_t_, ptr %95, i32 0, i32 2
  %97 = load i32, ptr %96, align 8
  %98 = lshr i32 %97, 28
  %99 = zext i32 %98 to i64
  %100 = getelementptr inbounds nuw ptr, ptr %94, i64 %99
  %101 = load ptr, ptr %100, align 8, !tbaa !8
  %102 = load i32, ptr %33, align 4, !tbaa !17
  %103 = sext i32 %102 to i64
  %104 = getelementptr inbounds i32, ptr %101, i64 %103
  %105 = load i32, ptr %104, align 4, !tbaa !17
  %106 = call i64 @Abc_Tt6Flip(i64 noundef %93, i32 noundef %105)
  store i64 %106, ptr %28, align 8, !tbaa !25
  %107 = getelementptr inbounds [6 x i32], ptr %23, i64 0, i64 0
  %108 = load ptr, ptr %15, align 8, !tbaa !49
  %109 = load ptr, ptr %14, align 8, !tbaa !3
  %110 = getelementptr inbounds nuw %struct.Mio_Cell2_t_, ptr %109, i32 0, i32 2
  %111 = load i32, ptr %110, align 8
  %112 = lshr i32 %111, 28
  %113 = zext i32 %112 to i64
  %114 = getelementptr inbounds nuw ptr, ptr %108, i64 %113
  %115 = load ptr, ptr %114, align 8, !tbaa !8
  %116 = load i32, ptr %33, align 4, !tbaa !17
  %117 = sext i32 %116 to i64
  %118 = getelementptr inbounds i32, ptr %115, i64 %117
  %119 = load i32, ptr %118, align 4, !tbaa !17
  %120 = sext i32 %119 to i64
  %121 = getelementptr inbounds i32, ptr %107, i64 %120
  store ptr %121, ptr %24, align 8, !tbaa !8
  %122 = load ptr, ptr %24, align 8, !tbaa !8
  %123 = load i32, ptr %122, align 4, !tbaa !17
  %124 = call i32 @Abc_LitNot(i32 noundef %123)
  %125 = load ptr, ptr %24, align 8, !tbaa !8
  store i32 %124, ptr %125, align 4, !tbaa !17
  br label %126

126:                                              ; preds = %78
  %127 = load i32, ptr %33, align 4, !tbaa !17
  %128 = add nsw i32 %127, 1
  store i32 %128, ptr %33, align 4, !tbaa !17
  br label %74, !llvm.loop !53

129:                                              ; preds = %74
  %130 = load i32, ptr %26, align 4, !tbaa !17
  %131 = icmp eq i32 %130, 1
  br i1 %131, label %132, label %133

132:                                              ; preds = %129
  br label %172

133:                                              ; preds = %129
  %134 = load i64, ptr %28, align 8, !tbaa !25
  %135 = load ptr, ptr %16, align 8, !tbaa !49
  %136 = load ptr, ptr %14, align 8, !tbaa !3
  %137 = getelementptr inbounds nuw %struct.Mio_Cell2_t_, ptr %136, i32 0, i32 2
  %138 = load i32, ptr %137, align 8
  %139 = lshr i32 %138, 28
  %140 = zext i32 %139 to i64
  %141 = getelementptr inbounds nuw ptr, ptr %135, i64 %140
  %142 = load ptr, ptr %141, align 8, !tbaa !8
  %143 = load i32, ptr %32, align 4, !tbaa !17
  %144 = sext i32 %143 to i64
  %145 = getelementptr inbounds i32, ptr %142, i64 %144
  %146 = load i32, ptr %145, align 4, !tbaa !17
  %147 = call i64 @Abc_Tt6SwapAdjacent(i64 noundef %134, i32 noundef %146)
  store i64 %147, ptr %28, align 8, !tbaa !25
  %148 = getelementptr inbounds [6 x i32], ptr %23, i64 0, i64 0
  %149 = load ptr, ptr %16, align 8, !tbaa !49
  %150 = load ptr, ptr %14, align 8, !tbaa !3
  %151 = getelementptr inbounds nuw %struct.Mio_Cell2_t_, ptr %150, i32 0, i32 2
  %152 = load i32, ptr %151, align 8
  %153 = lshr i32 %152, 28
  %154 = zext i32 %153 to i64
  %155 = getelementptr inbounds nuw ptr, ptr %149, i64 %154
  %156 = load ptr, ptr %155, align 8, !tbaa !8
  %157 = load i32, ptr %32, align 4, !tbaa !17
  %158 = sext i32 %157 to i64
  %159 = getelementptr inbounds i32, ptr %156, i64 %158
  %160 = load i32, ptr %159, align 4, !tbaa !17
  %161 = sext i32 %160 to i64
  %162 = getelementptr inbounds i32, ptr %148, i64 %161
  store ptr %162, ptr %24, align 8, !tbaa !8
  %163 = load ptr, ptr %24, align 8, !tbaa !8
  %164 = getelementptr inbounds i32, ptr %163, i64 1
  store ptr %164, ptr %25, align 8, !tbaa !8
  call void @llvm.lifetime.start.p0(i64 4, ptr %34) #13
  %165 = load ptr, ptr %24, align 8, !tbaa !8
  %166 = load i32, ptr %165, align 4, !tbaa !17
  store i32 %166, ptr %34, align 4, !tbaa !17
  %167 = load ptr, ptr %25, align 8, !tbaa !8
  %168 = load i32, ptr %167, align 4, !tbaa !17
  %169 = load ptr, ptr %24, align 8, !tbaa !8
  store i32 %168, ptr %169, align 4, !tbaa !17
  %170 = load i32, ptr %34, align 4, !tbaa !17
  %171 = load ptr, ptr %25, align 8, !tbaa !8
  store i32 %170, ptr %171, align 4, !tbaa !17
  call void @llvm.lifetime.end.p0(i64 4, ptr %34) #13
  br label %172

172:                                              ; preds = %133, %132
  %173 = load i32, ptr %32, align 4, !tbaa !17
  %174 = add nsw i32 %173, 1
  store i32 %174, ptr %32, align 4, !tbaa !17
  br label %68, !llvm.loop !54

175:                                              ; preds = %68
  call void @llvm.lifetime.end.p0(i64 4, ptr %33) #13
  call void @llvm.lifetime.end.p0(i64 4, ptr %32) #13
  call void @llvm.lifetime.end.p0(i64 4, ptr %31) #13
  call void @llvm.lifetime.end.p0(i64 8, ptr %30) #13
  call void @llvm.lifetime.end.p0(i64 8, ptr %29) #13
  call void @llvm.lifetime.end.p0(i64 8, ptr %28) #13
  call void @llvm.lifetime.end.p0(i64 4, ptr %27) #13
  call void @llvm.lifetime.end.p0(i64 4, ptr %26) #13
  call void @llvm.lifetime.end.p0(i64 8, ptr %25) #13
  call void @llvm.lifetime.end.p0(i64 8, ptr %24) #13
  call void @llvm.lifetime.end.p0(i64 24, ptr %23) #13
  ret void
}