; Function Attrs: nounwind uwtable
define void @Nf_StoCreateGateMaches(ptr noundef captures(none) %0, ptr noundef captures(none) %1, ptr noundef readonly captures(none) %2, ptr noundef readonly captures(none) %3, ptr noundef readonly captures(none) %4, ptr noundef readonly captures(none) %5, ptr noundef captures(none) %6, ptr noundef captures(none) %7, i32 noundef %8, i32 noundef %9, i32 noundef %10) local_unnamed_addr #2 {
  %12 = alloca [6 x i32], align 16
  call void @llvm.lifetime.start.p0(i64 24, ptr nonnull %12) #26
  %13 = getelementptr inbounds nuw i8, ptr %2, i64 16
  %14 = load i32, ptr %13, align 8
  %15 = lshr i32 %14, 28
  %16 = zext nneg i32 %15 to i64
  %17 = getelementptr inbounds nuw i32, ptr %5, i64 %16
  %18 = load i32, ptr %17, align 4, !tbaa !13
  %.fr58 = freeze i32 %18
  %.not = icmp ult i32 %14, 268435456
  br i1 %.not, label %._crit_edge, label %.lr.ph

.lr.ph:                                           ; preds = %11, %.lr.ph
  %indvars.iv = phi i64 [ %indvars.iv.next, %.lr.ph ], [ 0, %11 ]
  %19 = getelementptr inbounds nuw [6 x i32], ptr %12, i64 0, i64 %indvars.iv
  %indvars.iv.tr = trunc i64 %indvars.iv to i32
  %20 = shl i32 %indvars.iv.tr, 1
  store i32 %20, ptr %19, align 4, !tbaa !13
  %indvars.iv.next = add nuw nsw i64 %indvars.iv, 1
  %exitcond.not = icmp eq i64 %indvars.iv.next, %16
  br i1 %exitcond.not, label %._crit_edge, label %.lr.ph, !llvm.loop !50

._crit_edge:                                      ; preds = %.lr.ph, %11
  %21 = icmp sgt i32 %.fr58, 0
  br i1 %21, label %.preheader.lr.ph, label %._crit_edge57

.preheader.lr.ph:                                 ; preds = %._crit_edge
  %22 = getelementptr inbounds nuw i8, ptr %2, i64 32
  %23 = load i64, ptr %22, align 8, !tbaa !51
  %24 = icmp eq i32 %.fr58, 1
  br i1 %24, label %.preheader.us, label %.preheader.preheader

.preheader.preheader:                             ; preds = %.preheader.lr.ph
  %wide.trip.count68 = zext nneg i32 %.fr58 to i64
  br label %.preheader

.preheader.us:                                    ; preds = %.preheader.lr.ph, %.preheader.us
  %25 = phi i32 [ %27, %.preheader.us ], [ %14, %.preheader.lr.ph ]
  %indvars.iv70 = phi i64 [ %indvars.iv.next71, %.preheader.us ], [ 0, %.preheader.lr.ph ]
  %.153.us = phi i64 [ %43, %.preheader.us ], [ %23, %.preheader.lr.ph ]
  %26 = lshr i32 %25, 28
  call void @Nf_StoCreateGateAdd(ptr noundef %0, ptr noundef %1, ptr noundef nonnull %2, i64 noundef %.153.us, ptr noundef nonnull %12, i32 noundef %26, ptr noundef %6, ptr noundef %7, i32 noundef %8, i32 noundef %9, i32 noundef %10)
  %27 = load i32, ptr %13, align 8
  %28 = lshr i32 %27, 28
  %29 = zext nneg i32 %28 to i64
  %30 = getelementptr inbounds nuw ptr, ptr %3, i64 %29
  %31 = load ptr, ptr %30, align 8, !tbaa !52
  %32 = getelementptr inbounds nuw i32, ptr %31, i64 %indvars.iv70
  %33 = load i32, ptr %32, align 4, !tbaa !13
  %34 = shl nuw i32 1, %33
  %35 = zext i32 %34 to i64
  %36 = shl i64 %.153.us, %35
  %37 = sext i32 %33 to i64
  %38 = getelementptr inbounds [6 x i64], ptr @s_Truths6, i64 0, i64 %37
  %39 = load i64, ptr %38, align 8, !tbaa !16
  %40 = and i64 %36, %39
  %41 = and i64 %39, %.153.us
  %42 = lshr i64 %41, %35
  %43 = or i64 %40, %42
  %44 = getelementptr inbounds i32, ptr %12, i64 %37
  %45 = load i32, ptr %44, align 4, !tbaa !13
  %46 = xor i32 %45, 1
  store i32 %46, ptr %44, align 4, !tbaa !13
  %indvars.iv.next71 = add nuw nsw i64 %indvars.iv70, 1
  %47 = trunc nuw i64 %indvars.iv.next71 to i32
  %.0.highbits.us = lshr i32 %47, %15
  %48 = icmp eq i32 %.0.highbits.us, 0
  br i1 %48, label %.preheader.us, label %._crit_edge57, !llvm.loop !53

.preheader:                                       ; preds = %.preheader.preheader, %75
  %49 = phi i32 [ %14, %.preheader.preheader ], [ %53, %75 ]
  %indvars.iv65 = phi i64 [ 0, %.preheader.preheader ], [ %indvars.iv.next66, %75 ]
  %.05055 = phi i64 [ %23, %.preheader.preheader ], [ %95, %75 ]
  br label %50

50:                                               ; preds = %.preheader, %50
  %51 = phi i32 [ %49, %.preheader ], [ %53, %50 ]
  %indvars.iv62 = phi i64 [ 0, %.preheader ], [ %indvars.iv.next63, %50 ]
  %.153 = phi i64 [ %.05055, %.preheader ], [ %69, %50 ]
  %52 = lshr i32 %51, 28
  call void @Nf_StoCreateGateAdd(ptr noundef %0, ptr noundef %1, ptr noundef nonnull %2, i64 noundef %.153, ptr noundef nonnull %12, i32 noundef %52, ptr noundef %6, ptr noundef %7, i32 noundef %8, i32 noundef %9, i32 noundef %10)
  %53 = load i32, ptr %13, align 8
  %54 = lshr i32 %53, 28
  %55 = zext nneg i32 %54 to i64
  %56 = getelementptr inbounds nuw ptr, ptr %3, i64 %55
  %57 = load ptr, ptr %56, align 8, !tbaa !52
  %58 = getelementptr inbounds nuw i32, ptr %57, i64 %indvars.iv62
  %59 = load i32, ptr %58, align 4, !tbaa !13
  %60 = shl nuw i32 1, %59
  %61 = zext i32 %60 to i64
  %62 = shl i64 %.153, %61
  %63 = sext i32 %59 to i64
  %64 = getelementptr inbounds [6 x i64], ptr @s_Truths6, i64 0, i64 %63
  %65 = load i64, ptr %64, align 8, !tbaa !16
  %66 = and i64 %62, %65
  %67 = and i64 %65, %.153
  %68 = lshr i64 %67, %61
  %69 = or i64 %66, %68
  %70 = getelementptr inbounds i32, ptr %12, i64 %63
  %71 = load i32, ptr %70, align 4, !tbaa !13
  %72 = xor i32 %71, 1
  store i32 %72, ptr %70, align 4, !tbaa !13
  %indvars.iv.next63 = add nuw nsw i64 %indvars.iv62, 1
  %73 = trunc nuw i64 %indvars.iv.next63 to i32
  %.0.highbits = lshr i32 %73, %15
  %74 = icmp eq i32 %.0.highbits, 0
  br i1 %74, label %50, label %75, !llvm.loop !53

75:                                               ; preds = %50
  %76 = getelementptr inbounds nuw ptr, ptr %4, i64 %55
  %77 = load ptr, ptr %76, align 8, !tbaa !52
  %78 = getelementptr inbounds nuw i32, ptr %77, i64 %indvars.iv65
  %79 = load i32, ptr %78, align 4, !tbaa !13
  %80 = sext i32 %79 to i64
  %81 = getelementptr inbounds [5 x [3 x i64]], ptr @s_PMasks, i64 0, i64 %80
  %82 = load i64, ptr %81, align 8, !tbaa !16
  %83 = and i64 %82, %69
  %84 = getelementptr inbounds nuw i8, ptr %81, i64 8
  %85 = load i64, ptr %84, align 8, !tbaa !16
  %86 = and i64 %85, %69
  %87 = shl nuw i32 1, %79
  %88 = zext i32 %87 to i64
  %89 = shl i64 %86, %88
  %90 = or i64 %89, %83
  %91 = getelementptr inbounds nuw i8, ptr %81, i64 16
  %92 = load i64, ptr %91, align 8, !tbaa !16
  %93 = and i64 %92, %69
  %94 = lshr i64 %93, %88
  %95 = or i64 %90, %94
  %96 = getelementptr inbounds i32, ptr %12, i64 %80
  %97 = getelementptr inbounds nuw i8, ptr %96, i64 4
  %98 = load i32, ptr %96, align 4, !tbaa !13
  %99 = load i32, ptr %97, align 4, !tbaa !13
  store i32 %99, ptr %96, align 4, !tbaa !13
  store i32 %98, ptr %97, align 4, !tbaa !13
  %indvars.iv.next66 = add nuw nsw i64 %indvars.iv65, 1
  %exitcond69.not = icmp eq i64 %indvars.iv.next66, %wide.trip.count68
  br i1 %exitcond69.not, label %._crit_edge57, label %.preheader, !llvm.loop !54

._crit_edge57:                                    ; preds = %75, %.preheader.us, %._crit_edge
  call void @llvm.lifetime.end.p0(i64 24, ptr nonnull %12) #26
  ret void
}